target datalayout = "e-m:e-p270:32:32-p271:32:32-p272:64:64-i64:64-i128:128-f80:128-n8:16:32:64-S128"
target triple = "x86_64-unknown-linux-gnu"

%"class.openvdb::v11_0::points::AttributeSet" = type { %"class.std::shared_ptr", %"class.std::vector" }
%"class.std::shared_ptr" = type { %"class.std::__shared_ptr" }
%"class.std::__shared_ptr" = type { ptr, %"class.std::__shared_count" }
%"class.std::__shared_count" = type { ptr }
%"class.std::vector" = type { %"struct.std::_Vector_base" }
%"struct.std::_Vector_base" = type { %"struct.std::_Vector_base<std::shared_ptr<openvdb::v11_0::points::AttributeArray>, std::allocator<std::shared_ptr<openvdb::v11_0::points::AttributeArray>>>::_Vector_impl" }
%"struct.std::_Vector_base<std::shared_ptr<openvdb::v11_0::points::AttributeArray>, std::allocator<std::shared_ptr<openvdb::v11_0::points::AttributeArray>>>::_Vector_impl" = type { %"struct.std::_Vector_base<std::shared_ptr<openvdb::v11_0::points::AttributeArray>, std::allocator<std::shared_ptr<openvdb::v11_0::points::AttributeArray>>>::_Vector_impl_data" }
%"struct.std::_Vector_base<std::shared_ptr<openvdb::v11_0::points::AttributeArray>, std::allocator<std::shared_ptr<openvdb::v11_0::points::AttributeArray>>>::_Vector_impl_data" = type { ptr, ptr, ptr }
%"class.std::shared_ptr.18" = type { %"class.std::__shared_ptr.19" }
%"class.std::__shared_ptr.19" = type { ptr, %"class.std::__shared_count" }

; Function Attrs: mustprogress nounwind uwtable
define linkonce_odr noundef ptr @_ZNKSt12__shared_ptrIN7openvdb5v11_06points14AttributeArrayELN9__gnu_cxx12_Lock_policyE2EE3getEv(ptr noundef nonnull align 8 dereferenceable(16) %this) #7 comdat align 2 {
entry:
  %this.addr = alloca ptr, align 8
  store ptr %this, ptr %this.addr, align 8
  %this1 = load ptr, ptr %this.addr, align 8
  %_M_ptr = getelementptr inbounds %"class.std::__shared_ptr.19", ptr %this1, i32 0, i32 0
  %0 = load ptr, ptr %_M_ptr, align 8
  ret ptr %0
}

; Function Attrs: mustprogress nounwind uwtable
define linkonce_odr noundef nonnull align 8 dereferenceable(16) ptr @_ZNSt6vectorISt10shared_ptrIN7openvdb5v11_06points14AttributeArrayEESaIS5_EEixEm(ptr noundef nonnull align 8 dereferenceable(24) %this, i64 noundef %__n) #7 comdat align 2 {
entry:
  %this.addr = alloca ptr, align 8
  %__n.addr = alloca i64, align 8
  store ptr %this, ptr %this.addr, align 8
  store i64 %__n, ptr %__n.addr, align 8
  %this1 = load ptr, ptr %this.addr, align 8
  %_M_impl = getelementptr inbounds %"struct.std::_Vector_base", ptr %this1, i32 0, i32 0
  %_M_start = getelementptr inbounds %"struct.std::_Vector_base<std::shared_ptr<openvdb::v11_0::points::AttributeArray>, std::allocator<std::shared_ptr<openvdb::v11_0::points::AttributeArray>>>::_Vector_impl_data", ptr %_M_impl, i32 0, i32 0
  %0 = load ptr, ptr %_M_start, align 8
  %1 = load i64, ptr %__n.addr, align 8
  %add.ptr = getelementptr inbounds %"class.std::shared_ptr.18", ptr %0, i64 %1
  ret ptr %add.ptr
}

; Function Attrs: mustprogress uwtable
define noundef ptr @_ZN7openvdb5v11_06points12AttributeSet3getEm(ptr noundef nonnull align 8 dereferenceable(40) %this, i64 noundef %pos) #4 align 2 {
entry:
  %this.addr = alloca ptr, align 8
  %pos.addr = alloca i64, align 8
  store ptr %this, ptr %this.addr, align 8
  store i64 %pos, ptr %pos.addr, align 8
  %this1 = load ptr, ptr %this.addr, align 8
  %0 = load i64, ptr %pos.addr, align 8
  call void @_ZN7openvdb5v11_06points12AttributeSet10makeUniqueEm(ptr noundef nonnull align 8 dereferenceable(40) %this1, i64 noundef %0)
  %mAttrs = getelementptr inbounds %"class.openvdb::v11_0::points::AttributeSet", ptr %this1, i32 0, i32 1
  %1 = load i64, ptr %pos.addr, align 8
  %call = call noundef nonnull align 8 dereferenceable(16) ptr @_ZNSt6vectorISt10shared_ptrIN7openvdb5v11_06points14AttributeArrayEESaIS5_EEixEm(ptr noundef nonnull align 8 dereferenceable(24) %mAttrs, i64 noundef %1) #3
  %call2 = call noundef ptr @_ZNKSt12__shared_ptrIN7openvdb5v11_06points14AttributeArrayELN9__gnu_cxx12_Lock_policyE2EE3getEv(ptr noundef nonnull align 8 dereferenceable(16) %call) #3
  ret ptr %call2
}