; Function Attrs: mustprogress uwtable
define noundef ptr @_ZN7openvdb5v11_06points12AttributeSet3getEm(ptr nocapture noundef nonnull readonly align 8 dereferenceable(40) %this, i64 noundef %pos) local_unnamed_addr #3 align 2 {
entry:
  tail call void @_ZN7openvdb5v11_06points12AttributeSet10makeUniqueEm(ptr noundef nonnull align 8 dereferenceable(40) %this, i64 noundef %pos)
  %mAttrs = getelementptr inbounds i8, ptr %this, i64 16
  %0 = load ptr, ptr %mAttrs, align 8
  %add.ptr.i = getelementptr inbounds %"class.std::shared_ptr.18", ptr %0, i64 %pos
  %1 = load ptr, ptr %add.ptr.i, align 8
  ret ptr %1
}